target datalayout = "e-m:e-p270:32:32-p271:32:32-p272:64:64-i64:64-i128:128-f80:128-n8:16:32:64-S128"
target triple = "x86_64-pc-linux-gnu"

%struct.expert_field = type { i32, i32 }

@hf_ansi_801_reserved8_7F = internal global i32 0, align 4
@hf_ansi_801_extended_base_station_almanac = internal global i32 0, align 4
@ei_ansi_801_extraneous_data = internal global %struct.expert_field zeroinitializer, align 4
@ei_ansi_801_short_data = internal global %struct.expert_field zeroinitializer, align 4

; Function Attrs: null_pointer_is_valid sspstrong uwtable
define internal void @rev_req_bs_alm(ptr noundef %0, ptr noundef %1, ptr noundef %2, i32 noundef %3, i32 noundef %4) #0 {
  %6 = alloca ptr, align 8
  %7 = alloca ptr, align 8
  %8 = alloca ptr, align 8
  %9 = alloca i32, align 4
  %10 = alloca i32, align 4
  %11 = alloca i32, align 4
  %12 = alloca i32, align 4
  store ptr %0, ptr %6, align 8
  store ptr %1, ptr %7, align 8
  store ptr %2, ptr %8, align 8
  store i32 %3, ptr %9, align 4
  store i32 %4, ptr %10, align 4
  call void @llvm.lifetime.start.p0(i64 4, ptr %11) #6
  %13 = load i32, ptr %9, align 4
  %14 = icmp ult i32 %13, 1
  br i1 %14, label %15, label %22

15:                                               ; preds = %5
  %16 = load ptr, ptr %8, align 8
  %17 = load ptr, ptr %7, align 8
  %18 = load ptr, ptr %6, align 8
  %19 = load i32, ptr %10, align 4
  %20 = load i32, ptr %9, align 4
  %21 = call ptr @proto_tree_add_expert(ptr noundef %16, ptr noundef %17, ptr noundef @ei_ansi_801_short_data, ptr noundef %18, i32 noundef %19, i32 noundef %20)
  store i32 1, ptr %12, align 4
  br label %53

22:                                               ; preds = %5
  %23 = load i32, ptr %10, align 4
  store i32 %23, ptr %11, align 4
  %24 = load ptr, ptr %8, align 8
  %25 = load i32, ptr @hf_ansi_801_extended_base_station_almanac, align 4
  %26 = load ptr, ptr %6, align 8
  %27 = load i32, ptr %10, align 4
  %28 = call ptr @proto_tree_add_item(ptr noundef %24, i32 noundef %25, ptr noundef %26, i32 noundef %27, i32 noundef 1, i32 noundef 0)
  %29 = load ptr, ptr %8, align 8
  %30 = load i32, ptr @hf_ansi_801_reserved8_7F, align 4
  %31 = load ptr, ptr %6, align 8
  %32 = load i32, ptr %10, align 4
  %33 = call ptr @proto_tree_add_item(ptr noundef %29, i32 noundef %30, ptr noundef %31, i32 noundef %32, i32 noundef 1, i32 noundef 0)
  %34 = load i32, ptr %10, align 4
  %35 = add i32 %34, 1
  store i32 %35, ptr %10, align 4
  %36 = load i32, ptr %9, align 4
  %37 = load i32, ptr %10, align 4
  %38 = load i32, ptr %11, align 4
  %39 = sub i32 %37, %38
  %40 = icmp ugt i32 %36, %39
  br i1 %40, label %41, label %52

41:                                               ; preds = %22
  %42 = load ptr, ptr %8, align 8
  %43 = load ptr, ptr %7, align 8
  %44 = load ptr, ptr %6, align 8
  %45 = load i32, ptr %10, align 4
  %46 = load i32, ptr %9, align 4
  %47 = load i32, ptr %10, align 4
  %48 = load i32, ptr %11, align 4
  %49 = sub i32 %47, %48
  %50 = sub i32 %46, %49
  %51 = call ptr @proto_tree_add_expert(ptr noundef %42, ptr noundef %43, ptr noundef @ei_ansi_801_extraneous_data, ptr noundef %44, i32 noundef %45, i32 noundef %50)
  br label %52

52:                                               ; preds = %41, %22
  store i32 0, ptr %12, align 4
  br label %53

53:                                               ; preds = %52, %15
  call void @llvm.lifetime.end.p0(i64 4, ptr %11) #6
  %54 = load i32, ptr %12, align 4
  switch i32 %54, label %56 [
    i32 0, label %55
    i32 1, label %55
  ]

55:                                               ; preds = %53, %53
  ret void

56:                                               ; preds = %53
  unreachable
}